; Function Attrs: nounwind uwtable
define range(i32 -1, 1) i32 @H5Pset_copy_object(i64 noundef %0, i32 noundef %1) local_unnamed_addr #0 {
  %3 = alloca i32, align 4
  %4 = alloca %struct.H5CX_node_t, align 8
  store i32 %1, ptr %3, align 4, !tbaa !12
  call void @llvm.lifetime.start.p0(i64 480, ptr nonnull %4) #8
  call void @llvm.memset.p0.i64(ptr noundef nonnull align 8 dereferenceable(480) %4, i8 0, i64 480, i1 false)
  %5 = load i8, ptr @H5_libinit_g, align 1, !tbaa !3, !range !7, !noundef !8
  %6 = trunc nuw i8 %5 to i1
  %7 = load i8, ptr @H5_libterm_g, align 1, !range !7
  %8 = trunc nuw i8 %7 to i1
  %9 = select i1 %6, i1 true, i1 %8
  br i1 %9, label %17, label %10, !prof !9

10:                                               ; preds = %2
  %11 = tail call i32 @H5_init_library() #8
  %12 = icmp slt i32 %11, 0
  br i1 %12, label %13, label %._crit_edge, !prof !14

._crit_edge:                                      ; preds = %10
  %.pre = load i8, ptr @H5_libterm_g, align 1, !range !7
  br label %17

13:                                               ; preds = %10
  %14 = load i64, ptr @H5E_FUNC_g, align 8, !tbaa !10
  %15 = load i64, ptr @H5E_CANTINIT_g, align 8, !tbaa !10
  %16 = tail call i32 (ptr, ptr, i32, i64, i64, ptr, ...) @H5E_printf_stack(ptr noundef nonnull @.str.2, ptr noundef nonnull @__func__.H5Pset_copy_object, i32 noundef 612, i64 noundef %14, i64 noundef %15, ptr noundef nonnull @.str.3) #8
  br label %.thread21

17:                                               ; preds = %._crit_edge, %2
  %18 = phi i8 [ %.pre, %._crit_edge ], [ %7, %2 ]
  %19 = load i8, ptr @H5P_init_g, align 1, !tbaa !3, !range !7, !noundef !8
  %20 = trunc nuw i8 %19 to i1
  %21 = trunc nuw i8 %18 to i1
  %22 = select i1 %20, i1 true, i1 %21
  br i1 %22, label %30, label %23, !prof !9

23:                                               ; preds = %17
  store i8 1, ptr @H5P_init_g, align 1, !tbaa !3
  %24 = tail call i32 @H5P__init_package() #8
  %25 = icmp slt i32 %24, 0
  br i1 %25, label %26, label %30, !prof !15

26:                                               ; preds = %23
  store i8 0, ptr @H5P_init_g, align 1, !tbaa !3
  %27 = load i64, ptr @H5E_FUNC_g, align 8, !tbaa !10
  %28 = load i64, ptr @H5E_CANTINIT_g, align 8, !tbaa !10
  %29 = tail call i32 (ptr, ptr, i32, i64, i64, ptr, ...) @H5E_printf_stack(ptr noundef nonnull @.str.2, ptr noundef nonnull @__func__.H5Pset_copy_object, i32 noundef 612, i64 noundef %27, i64 noundef %28, ptr noundef nonnull @.str.4) #8
  br label %.thread21

30:                                               ; preds = %17, %23
  %31 = call i32 @H5CX_push(ptr noundef nonnull %4) #8
  %32 = icmp slt i32 %31, 0
  br i1 %32, label %33, label %37, !prof !14

33:                                               ; preds = %30
  %34 = load i64, ptr @H5E_FUNC_g, align 8, !tbaa !10
  %35 = load i64, ptr @H5E_CANTSET_g, align 8, !tbaa !10
  %36 = call i32 (ptr, ptr, i32, i64, i64, ptr, ...) @H5E_printf_stack(ptr noundef nonnull @.str.2, ptr noundef nonnull @__func__.H5Pset_copy_object, i32 noundef 612, i64 noundef %34, i64 noundef %35, ptr noundef nonnull @.str.5) #8
  br label %.thread21

37:                                               ; preds = %30
  %38 = call i32 @H5E_clear_stack() #8
  %.not = icmp ult i32 %1, 128
  br i1 %.not, label %43, label %39, !prof !16

39:                                               ; preds = %37
  %40 = load i64, ptr @H5E_ARGS_g, align 8, !tbaa !10
  %41 = load i64, ptr @H5E_BADVALUE_g, align 8, !tbaa !10
  %42 = call i32 (ptr, ptr, i32, i64, i64, ptr, ...) @H5E_printf_stack(ptr noundef nonnull @.str.2, ptr noundef nonnull @__func__.H5Pset_copy_object, i32 noundef 616, i64 noundef %40, i64 noundef %41, ptr noundef nonnull @.str.6) #8
  br label %.thread27

43:                                               ; preds = %37
  %44 = load i64, ptr @H5P_CLS_OBJECT_COPY_ID_g, align 8, !tbaa !10
  %45 = call ptr @H5P_object_verify(i64 noundef %0, i64 noundef %44, i1 noundef zeroext false) #8
  %46 = icmp eq ptr %45, null
  br i1 %46, label %47, label %51, !prof !17

47:                                               ; preds = %43
  %48 = load i64, ptr @H5E_ID_g, align 8, !tbaa !10
  %49 = load i64, ptr @H5E_BADID_g, align 8, !tbaa !10
  %50 = call i32 (ptr, ptr, i32, i64, i64, ptr, ...) @H5E_printf_stack(ptr noundef nonnull @.str.2, ptr noundef nonnull @__func__.H5Pset_copy_object, i32 noundef 620, i64 noundef %48, i64 noundef %49, ptr noundef nonnull @.str.7) #8
  br label %.thread27

51:                                               ; preds = %43
  %52 = call i32 @H5P_set(ptr noundef nonnull %45, ptr noundef nonnull @.str.8, ptr noundef nonnull %3) #8
  %53 = icmp slt i32 %52, 0
  br i1 %53, label %54, label %59, !prof !17

54:                                               ; preds = %51
  %55 = load i64, ptr @H5E_PLIST_g, align 8, !tbaa !10
  %56 = load i64, ptr @H5E_CANTSET_g, align 8, !tbaa !10
  %57 = call i32 (ptr, ptr, i32, i64, i64, ptr, ...) @H5E_printf_stack(ptr noundef nonnull @.str.2, ptr noundef nonnull @__func__.H5Pset_copy_object, i32 noundef 624, i64 noundef %55, i64 noundef %56, ptr noundef nonnull @.str.9) #8
  br label %.thread27

.thread27:                                        ; preds = %54, %47, %39
  %58 = call i32 @H5CX_pop(i1 noundef zeroext true) #8
  br label %.thread21

59:                                               ; preds = %51
  %60 = call i32 @H5CX_pop(i1 noundef zeroext true) #8
  br label %62

.thread21:                                        ; preds = %33, %26, %13, %.thread27
  %61 = call i32 @H5E_dump_api_stack() #8
  br label %62

62:                                               ; preds = %59, %.thread21
  %.0111624 = phi i32 [ -1, %.thread21 ], [ 0, %59 ]
  call void @llvm.lifetime.end.p0(i64 480, ptr nonnull %4) #8
  ret i32 %.0111624
}